; Function Attrs: mustprogress uwtable
define noundef zeroext i1 @_ZN10MainWindow29importMeshWithLayerManagementE7QString(ptr noundef nonnull align 8 dereferenceable(1376) %0, ptr nocapture noundef readonly %1) local_unnamed_addr #9 align 2 personality ptr @__gxx_personality_v0 {
  %3 = alloca %class.QString, align 8
  %4 = getelementptr inbounds i8, ptr %0, i64 160
  %5 = load ptr, ptr %4, align 8
  %.not = icmp eq ptr %5, null
  br i1 %.not, label %13, label %6

6:                                                ; preds = %2
  %7 = getelementptr inbounds i8, ptr %5, i64 40
  %8 = load ptr, ptr %7, align 8
  %9 = getelementptr inbounds i8, ptr %8, i64 8
  %10 = load i32, ptr %9, align 8
  %11 = and i32 %10, 32768
  %12 = icmp ne i32 %11, 0
  br label %13

13:                                               ; preds = %6, %2
  %.0 = phi i1 [ %12, %6 ], [ false, %2 ]
  %14 = getelementptr inbounds i8, ptr %0, i64 296
  %15 = load ptr, ptr %14, align 8
  tail call void @_ZN7QWidget10setEnabledEb(ptr noundef nonnull align 8 dereferenceable(48) %15, i1 noundef zeroext false)
  %16 = load ptr, ptr %1, align 8
  store ptr %16, ptr %3, align 8
  %17 = load atomic i32, ptr %16 monotonic, align 4
  %18 = add i32 %17, -1
  %or.cond.not.i.i = icmp ult i32 %18, -2
  br i1 %or.cond.not.i.i, label %19, label %_ZN7QStringC2ERKS_.exit

19:                                               ; preds = %13
  %20 = atomicrmw add ptr %16, i32 1 seq_cst, align 4
  br label %_ZN7QStringC2ERKS_.exit

_ZN7QStringC2ERKS_.exit:                          ; preds = %13, %19
  %21 = invoke noundef zeroext i1 @_ZN10MainWindow10importMeshE7QString(ptr noundef nonnull align 8 dereferenceable(1376) %0, ptr noundef nonnull %3)
          to label %22 unwind label %50

22:                                               ; preds = %_ZN7QStringC2ERKS_.exit
  %23 = load ptr, ptr %3, align 8
  %24 = load atomic i32, ptr %23 monotonic, align 4
  switch i32 %24, label %_ZN9QtPrivate8RefCount5derefEv.exit.i [
    i32 0, label %_ZN9QtPrivate8RefCount5derefEv.exit.thread2.i
    i32 -1, label %_ZN7QStringD2Ev.exit
  ]

_ZN9QtPrivate8RefCount5derefEv.exit.i:            ; preds = %22
  %25 = atomicrmw sub ptr %23, i32 1 seq_cst, align 4
  %.not.i = icmp eq i32 %25, 1
  br i1 %.not.i, label %_ZN9QtPrivate8RefCount5derefEv.exit._ZN9QtPrivate8RefCount5derefEv.exit.thread2_crit_edge.i, label %_ZN7QStringD2Ev.exit

_ZN9QtPrivate8RefCount5derefEv.exit._ZN9QtPrivate8RefCount5derefEv.exit.thread2_crit_edge.i: ; preds = %_ZN9QtPrivate8RefCount5derefEv.exit.i
  %.pre.i = load ptr, ptr %3, align 8
  br label %_ZN9QtPrivate8RefCount5derefEv.exit.thread2.i

_ZN9QtPrivate8RefCount5derefEv.exit.thread2.i:    ; preds = %_ZN9QtPrivate8RefCount5derefEv.exit._ZN9QtPrivate8RefCount5derefEv.exit.thread2_crit_edge.i, %22
  %26 = phi ptr [ %.pre.i, %_ZN9QtPrivate8RefCount5derefEv.exit._ZN9QtPrivate8RefCount5derefEv.exit.thread2_crit_edge.i ], [ %23, %22 ]
  call void @_ZN10QArrayData10deallocateEPS_mm(ptr noundef %26, i64 noundef 2, i64 noundef 8) #26
  br label %_ZN7QStringD2Ev.exit

_ZN7QStringD2Ev.exit:                             ; preds = %22, %_ZN9QtPrivate8RefCount5derefEv.exit.i, %_ZN9QtPrivate8RefCount5derefEv.exit.thread2.i
  %27 = load ptr, ptr %14, align 8
  call void @_ZN7QWidget10setEnabledEb(ptr noundef nonnull align 8 dereferenceable(48) %27, i1 noundef zeroext true)
  %28 = load ptr, ptr %4, align 8
  %.not5 = icmp eq ptr %28, null
  br i1 %.not5, label %_ZN10MainWindow12showLayerDlgEb.exit, label %29

29:                                               ; preds = %_ZN7QStringD2Ev.exit
  br i1 %.0, label %36, label %30

30:                                               ; preds = %29
  %31 = getelementptr inbounds i8, ptr %0, i64 1368
  %32 = load ptr, ptr %31, align 8
  %.not.i6 = icmp eq ptr %32, null
  %33 = getelementptr inbounds i8, ptr %32, i64 48
  %spec.select.i = select i1 %.not.i6, ptr null, ptr %33
  %34 = call noundef i32 @_ZNK12MeshDocument10meshNumberEv(ptr noundef nonnull align 8 dereferenceable(192) %spec.select.i)
  %35 = icmp ne i32 %34, 0
  br label %36

36:                                               ; preds = %30, %29
  %37 = phi i1 [ true, %29 ], [ %35, %30 ]
  %38 = getelementptr inbounds i8, ptr %0, i64 1368
  %39 = load ptr, ptr %38, align 8
  %.not.i.i = icmp eq ptr %39, null
  br i1 %.not.i.i, label %_ZN10MainWindow12showLayerDlgEb.exit, label %_ZNK10MainWindow3GLAEv.exit.i

_ZNK10MainWindow3GLAEv.exit.i:                    ; preds = %36
  %40 = getelementptr inbounds i8, ptr %39, i64 256
  %41 = load ptr, ptr %40, align 8
  %.not.i7 = icmp eq ptr %41, null
  br i1 %.not.i7, label %_ZN10MainWindow12showLayerDlgEb.exit, label %42

42:                                               ; preds = %_ZNK10MainWindow3GLAEv.exit.i
  %43 = load ptr, ptr %4, align 8
  %.not2.i = icmp eq ptr %43, null
  br i1 %.not2.i, label %_ZN10MainWindow12showLayerDlgEb.exit, label %44

44:                                               ; preds = %42
  %45 = load ptr, ptr %43, align 8
  %46 = getelementptr inbounds i8, ptr %45, i64 104
  %47 = load ptr, ptr %46, align 8
  call void %47(ptr noundef nonnull align 8 dereferenceable(48) %43, i1 noundef zeroext %37)
  %48 = getelementptr inbounds i8, ptr %0, i64 928
  %49 = load ptr, ptr %48, align 8
  call void @_ZN7QAction10setCheckedEb(ptr noundef nonnull align 8 dereferenceable(16) %49, i1 noundef zeroext %37)
  br label %_ZN10MainWindow12showLayerDlgEb.exit

50:                                               ; preds = %_ZN7QStringC2ERKS_.exit
  %51 = landingpad { ptr, i32 }
          cleanup
  call void @_ZN7QStringD2Ev(ptr noundef nonnull align 8 dereferenceable(8) %3) #26
  resume { ptr, i32 } %51

_ZN10MainWindow12showLayerDlgEb.exit:             ; preds = %44, %42, %_ZNK10MainWindow3GLAEv.exit.i, %36, %_ZN7QStringD2Ev.exit
  call void @_ZN10MainWindow21setCurrentMeshBestTabEv(ptr noundef nonnull align 8 dereferenceable(1376) %0)
  ret i1 %21
}